(dp0
S'task_avg_returns'
p1
(lp2
(lp3
F-23.9326876313
aF-54.4069788207
aF-55.1631321025
aF-36.0977032359
aF-9.57528052713
aF-20.6437580319
aF-47.5795424121
aF-50.1309881615
aF-10.1000853234
aF-48.0992132912
aF-55.6592339351
aF-27.0845378268
aF-54.7514161066
aF-63.1311583842
aF-49.7698358202
aF-41.5779393512
aF-47.0760518589
aF-29.0024643607
aF-38.575070363
aF-54.0028000768
aF-55.4192969584
aF-36.1602720638
aF-40.6079917323
aF-47.4384377685
aF-44.2543404171
aF-51.1480550854
aF-38.5043225323
aF-46.5779400222
aF-38.2513419658
aF-21.8091435875
aF-41.3584681551
aF-23.0305186412
aF-45.3883709952
aF-18.1382361506
aF-46.3433994291
aF-55.9513632398
aF-47.0705236465
aF-36.9723822067
aF-46.9505026185
aF-34.4976798766
aa(lp4
F-5.91549726625
aF-33.157311876
aF-34.416736239
aF-14.8108747307
aF-6.30233715001
aF-6.24986319769
aF-20.306333699
aF-25.0126740008
aF-6.1578666449
aF-27.7167897111
aF-34.4539119335
aF-6.6689341787
aF-33.7401986666
aF-42.2228837372
aF-23.5032892987
aF-19.5371988216
aF-24.0285333049
aF-6.80628903
aF-17.1145672564
aF-28.5838465297
aF-33.921417643
aF-9.30067378135
aF-17.7368338693
aF-22.0874327801
aF-23.5967635129
aF-26.3965511129
aF-16.423411218
aF-23.1236138294
aF-12.8925130269
aF-9.95887273371
aF-18.8574906354
aF-6.11952240144
aF-21.8527048887
aF-6.63698860006
aF-24.2713638431
aF-29.4946690609
aF-21.098029018
aF-14.1106707024
aF-21.0428314528
aF-13.460588009
aa(lp5
F-6.23983640415
aF-19.0997303645
aF-20.3117998383
aF-9.18467645062
aF-6.04062980426
aF-5.94150087469
aF-10.580945155
aF-13.344982331
aF-6.00142585167
aF-12.2290466677
aF-20.3933568716
aF-5.96869056632
aF-21.9147513236
aF-28.8672418246
aF-11.9628755848
aF-11.1627309681
aF-13.576264346
aF-5.51441024851
aF-8.83179389712
aF-14.1430133069
aF-21.5648112547
aF-6.21514544926
aF-11.3017860146
aF-10.3307307926
aF-9.84152661898
aF-12.6095652694
aF-9.99902817261
aF-12.9505173727
aF-7.95902911374
aF-7.07453791574
aF-12.2522221388
aF-6.48563966619
aF-13.1249084062
aF-5.51798370681
aF-11.3668639945
aF-17.4555525565
aF-10.5349466466
aF-9.39314179239
aF-13.1907199712
aF-8.18615788026
aa(lp6
F-6.33075060626
aF-11.9102561044
aF-10.5484561892
aF-8.44258819925
aF-6.76682939543
aF-5.89817079908
aF-8.84572648132
aF-9.30278689261
aF-7.03259513199
aF-9.47796576123
aF-13.7296187715
aF-6.2227533682
aF-9.24239271554
aF-12.660188153
aF-8.68061580655
aF-8.2970556214
aF-9.43223918072
aF-6.26846912211
aF-7.94886579598
aF-9.88176041416
aF-11.1367895242
aF-7.94321523173
aF-7.75197369706
aF-7.52180723768
aF-9.01853365911
aF-8.33833429437
aF-7.74559776577
aF-8.73092735738
aF-7.93684787351
aF-7.70646983915
aF-7.79140514814
aF-5.89891145528
aF-8.55110159068
aF-6.05073950067
aF-7.51554592731
aF-8.61576786537
aF-8.6773832788
aF-8.39014434114
aF-8.63260215644
aF-8.1126092559
aa(lp7
F-5.64407036783
aF-8.61863471963
aF-9.04397460819
aF-6.47668763108
aF-6.44533570458
aF-6.02963557363
aF-7.46533262611
aF-8.05317312754
aF-5.30612218257
aF-8.04271780058
aF-9.78826754163
aF-5.90835693552
aF-9.09447455069
aF-11.2708250416
aF-8.1014932936
aF-7.35584809987
aF-8.36518854285
aF-6.02859142287
aF-6.45385488164
aF-7.79907024559
aF-8.66335174172
aF-6.3142346244
aF-7.6493453745
aF-7.82374242051
aF-7.24429079969
aF-8.68188781398
aF-6.91953926181
aF-7.70255439659
aF-6.85352280583
aF-6.29319672717
aF-8.44846698598
aF-6.12533927015
aF-8.23788739413
aF-6.29081826838
aF-7.99435075187
aF-7.63995312628
aF-7.36313102112
aF-6.5181566127
aF-8.24170060968
aF-7.16631294914
aas.