(dp0
S'task_avg_returns'
p1
(lp2
(lp3
F-71.0450773744
aF-89.5508324429
aF-92.0769597829
aF-77.9002279883
aF-69.0645800543
aF-74.423060475
aF-85.7475025155
aF-86.6205834233
aF-73.9381626623
aF-87.3872015949
aF-89.7871543913
aF-71.270041201
aF-87.692935821
aF-96.8412050801
aF-86.9719387076
aF-82.6318805123
aF-84.204212426
aF-80.1706399772
aF-80.0009616446
aF-88.3512399004
aF-89.2989680662
aF-78.4619780317
aF-82.0796260061
aF-88.3151393817
aF-86.9047262396
aF-87.1925282062
aF-82.6195602731
aF-90.0641675906
aF-84.0262548415
aF-71.1987982276
aF-80.8522614751
aF-71.0811407066
aF-82.43873574
aF-69.1963776718
aF-82.0171704182
aF-92.7710294885
aF-85.3206240824
aF-83.9531956438
aF-86.2236201386
aF-76.6598652686
aa(lp4
F-48.8902420739
aF-66.4590810757
aF-65.4911471029
aF-64.9755885072
aF-48.189836947
aF-51.0254860634
aF-56.1788283894
aF-61.4060391224
aF-43.9407371049
aF-63.3386737126
aF-63.0919506245
aF-52.7080677775
aF-64.6459933427
aF-68.2135468277
aF-56.5624955727
aF-60.7521251531
aF-58.862814162
aF-50.1028058984
aF-58.7255779877
aF-63.8326506601
aF-64.9421633516
aF-51.8545561687
aF-57.7915644982
aF-57.3017333893
aF-61.2510590679
aF-58.674095364
aF-58.871833823
aF-57.3990594538
aF-55.3694442587
aF-51.5813988852
aF-63.1681513394
aF-45.9409202632
aF-65.8062696655
aF-51.2934428784
aF-60.4216638892
aF-59.7653775228
aF-58.5353556033
aF-57.422521474
aF-59.4022800608
aF-54.3558857623
aa(lp5
F-54.1973817576
aF-52.8940103676
aF-52.3097075935
aF-51.0227239862
aF-44.8599504588
aF-46.8457701154
aF-56.6398484616
aF-57.8087340742
aF-52.6516597395
aF-58.5777050047
aF-59.3040010288
aF-43.7622003451
aF-65.3657074589
aF-54.3912143802
aF-57.9071045703
aF-49.5359239376
aF-59.2257380177
aF-44.9925717066
aF-57.1148960664
aF-63.1676735547
aF-60.934531926
aF-53.2487127942
aF-48.0613648527
aF-54.5989858803
aF-47.367002702
aF-54.8621871037
aF-45.5610677575
aF-50.2756663136
aF-46.6636911948
aF-50.8149967789
aF-57.1470450012
aF-54.4616911927
aF-53.5080311953
aF-54.039124506
aF-53.2707491291
aF-59.0836507413
aF-57.846894199
aF-58.1721835122
aF-60.6774008146
aF-50.3509227845
aa(lp6
F-40.2561791115
aF-56.5354896794
aF-46.8949340462
aF-52.6649338923
aF-38.7266752633
aF-41.4698887592
aF-47.6274892011
aF-52.8108642013
aF-44.7035273666
aF-51.563754956
aF-49.8289747646
aF-40.0821517912
aF-49.8708966044
aF-48.8545829775
aF-50.0577470532
aF-46.2368284436
aF-51.614730144
aF-42.0682452225
aF-47.177779613
aF-50.5415990237
aF-48.7854880508
aF-47.5216197526
aF-44.3858853543
aF-43.4908623735
aF-42.4371314686
aF-52.3086725703
aF-45.6057157634
aF-44.8986040587
aF-41.8086644319
aF-44.701654478
aF-51.7209387901
aF-42.5358226966
aF-52.8641747578
aF-44.3013115624
aF-44.3159721336
aF-49.0447840753
aF-46.7485644198
aF-45.8229842833
aF-46.2702492103
aF-43.1838875223
aa(lp7
F-38.616841466
aF-49.5695533653
aF-47.9368892848
aF-39.0261750395
aF-35.4177381728
aF-40.0706218255
aF-45.0433457592
aF-39.0097022651
aF-36.6050912152
aF-43.3697417667
aF-45.7545633358
aF-43.7712552159
aF-45.7739657944
aF-49.8370890462
aF-48.3724913698
aF-47.9852851675
aF-45.2244583329
aF-41.9480344245
aF-44.2598354208
aF-44.9683046158
aF-46.1152526603
aF-36.1925024694
aF-45.8910043824
aF-43.7462331049
aF-45.6438733076
aF-39.7999266458
aF-43.301879365
aF-45.9604275488
aF-47.3575653512
aF-36.1657315826
aF-35.8178095917
aF-36.0424054936
aF-40.6965477294
aF-40.4559575765
aF-46.6521883857
aF-42.5859103551
aF-42.910928494
aF-40.0604700467
aF-40.5612469945
aF-47.8280469281
aas.