(dp0
S'task_avg_returns'
p1
(lp2
(lp3
F-1.97272875745
aF-2.34575318154
aF-2.32250937247
aF-2.08331732345
aF-1.48506580113
aF-1.82948806173
aF-2.9593656989
aF-2.95927984391
aF-1.62553040865
aF-2.24929753541
aF-2.60588825185
aF-1.87460507218
aF-2.16624064843
aF-2.92060743576
aF-3.14571198472
aF-2.19234063112
aF-2.53227361567
aF-1.53461938736
aF-2.10279844877
aF-3.24244584946
aF-2.76242677435
aF-2.37053743068
aF-2.17942891458
aF-2.06120806957
aF-2.33617484501
aF-3.09065130611
aF-2.19778531831
aF-2.64369463483
aF-2.08031379918
aF-1.84096218
aF-2.13910248301
aF-1.48007332088
aF-2.59933037373
aF-1.67871774468
aF-2.41717877275
aF-2.17676728609
aF-2.92057994794
aF-2.21554034345
aF-2.39851887364
aF-1.7900390061
aas.