(dp0
S'task_avg_returns'
p1
(lp2
(lp3
F-24.2218990512
aF-54.3177740763
aF-54.3281569671
aF-35.5954101381
aF-11.5147914673
aF-20.9682900466
aF-48.5763211671
aF-50.9086090666
aF-10.9520670293
aF-47.4309523164
aF-55.6695823973
aF-27.5499624341
aF-54.4640328397
aF-62.3935771572
aF-50.7911546266
aF-41.590624446
aF-45.6277909242
aF-26.5151164203
aF-38.433117298
aF-54.9245114646
aF-54.6173894951
aF-36.955549354
aF-40.6928344096
aF-45.476216075
aF-42.9961287231
aF-51.9458313248
aF-37.6992692687
aF-44.7595749452
aF-36.1266524247
aF-22.2351717449
aF-41.3398319237
aF-21.1747301438
aF-45.8264344836
aF-16.5354259354
aF-45.0403086598
aF-53.951856965
aF-48.0281795734
aF-35.2783855541
aF-45.0730149201
aF-33.7634185468
aa(lp4
F-12.1916728335
aF-20.7984345127
aF-21.7261895199
aF-2.26016771619
aF-3.05223061822
aF-15.6734297156
aF-12.1766361061
aF-15.8857604423
aF-7.89234965858
aF-14.6440477255
aF-23.701555143
aF-6.16285874344
aF-22.6619529438
aF-29.6825027347
aF-14.7147289424
aF-6.02868699752
aF-11.6095277161
aF-10.1803583517
aF-5.35209034337
aF-19.2607166114
aF-22.3436392363
aF-1.61509871893
aF-4.34900760342
aF-7.29699334693
aF-10.3177547849
aF-16.8245741334
aF-3.37642777875
aF-11.7910585788
aF-2.01979338619
aF-9.84853827625
aF-5.45177164532
aF-16.183608442
aF-9.83367044038
aF-18.8839262729
aF-11.1910534871
aF-16.0625966156
aF-10.5705330086
aF-3.01402077884
aF-7.67318522583
aF-2.89862344678
aa(lp5
F-2.05451256303
aF-4.95446881963
aF-7.52631889946
aF-2.05615897226
aF-1.83294821496
aF-1.79278738315
aF-3.50917277627
aF-4.14469075414
aF-1.7047792422
aF-3.4409635655
aF-3.85251079713
aF-1.54428615923
aF-3.64080618252
aF-5.02378079367
aF-9.86784972037
aF-2.11812317888
aF-3.10102241229
aF-2.25830926937
aF-2.14075497081
aF-5.29558558522
aF-3.37508148531
aF-1.61170897264
aF-2.05001221785
aF-5.05723946962
aF-2.21407107971
aF-4.09531353156
aF-2.27239363717
aF-6.08701689218
aF-1.98106683963
aF-1.44459280651
aF-2.23232551183
aF-3.97672665145
aF-3.76732118861
aF-1.66300004648
aF-3.6567545413
aF-5.69995736011
aF-3.48082957451
aF-1.75336669283
aF-2.29595665426
aF-2.53365060791
aa(lp6
F-2.32981621027
aF-3.94460719127
aF-6.22926305925
aF-2.01728794718
aF-1.51763657982
aF-1.33307449084
aF-2.3465519797
aF-3.2425341745
aF-1.63330230952
aF-4.46382891819
aF-8.44485622876
aF-2.20161679856
aF-3.96536835105
aF-10.3702555599
aF-2.49992751491
aF-2.09996662797
aF-3.09496964789
aF-1.68765468686
aF-2.77143188558
aF-4.07641918725
aF-5.74581598178
aF-2.3310461149
aF-2.12601860202
aF-4.83285808301
aF-2.34682567382
aF-4.54907425025
aF-2.6203555753
aF-2.97036135442
aF-2.31749017895
aF-1.23124649877
aF-2.23284824702
aF-1.2053041576
aF-4.06106025945
aF-1.19151708875
aF-3.6009618093
aF-4.1530073689
aF-2.5084441082
aF-2.47084051294
aF-3.44243621636
aF-2.98693679342
aa(lp7
F-1.48915357349
aF-9.07918417951
aF-5.39153196333
aF-1.90540541065
aF-1.51686009082
aF-1.21422547669
aF-4.44388199835
aF-3.02541235351
aF-1.48667842374
aF-4.13318030429
aF-2.49030823103
aF-1.39874361195
aF-3.31694062619
aF-9.67201278576
aF-3.39116902555
aF-2.86117061916
aF-4.00588644237
aF-1.88986747863
aF-2.21106835977
aF-4.35470593568
aF-5.84720506908
aF-4.98763295042
aF-3.06078286726
aF-2.05851008564
aF-2.87168296123
aF-3.5387057663
aF-4.4450174237
aF-3.52894603642
aF-1.85071655704
aF-1.42710724237
aF-1.79240845282
aF-1.21128759
aF-3.10920855172
aF-1.28148575912
aF-5.58185505694
aF-5.66223916966
aF-2.48636173525
aF-3.38678306796
aF-2.55701526003
aF-4.07050152015
aas.